; Function Attrs: mustprogress nounwind uwtable
define hidden void @_ZN23ShenandoahGCWorkerPhaseC2EN22ShenandoahPhaseTimings5PhaseE(ptr nocapture noundef nonnull writeonly align 8 dereferenceable(12) %0, i32 noundef %1) unnamed_addr #0 align 2 {
  %3 = load ptr, ptr @_ZN8Universe14_collectedHeapE, align 8
  %4 = getelementptr inbounds i8, ptr %3, i64 1680
  %5 = load ptr, ptr %4, align 8
  store ptr %5, ptr %0, align 8
  %6 = getelementptr inbounds i8, ptr %0, i64 8
  store i32 %1, ptr %6, align 8
  tail call void @_ZN22ShenandoahPhaseTimings20record_workers_startENS_5PhaseE(ptr noundef nonnull align 8 dereferenceable(30352) %5, i32 noundef %1) #12
  ret void
}